target datalayout = "e-m:e-p270:32:32-p271:32:32-p272:64:64-i64:64-i128:128-f80:128-n8:16:32:64-S128"
target triple = "x86_64-pc-linux-gnu"

%"class.cv::Mat" = type { i32, i32, i32, i32, ptr, ptr, ptr, ptr, ptr, ptr, %"struct.cv::MatSize", %"struct.cv::MatStep" }
%"struct.cv::MatSize" = type { ptr }
%"struct.cv::MatStep" = type { ptr, [2 x i64] }
%"struct.cv::Ptr.13" = type { %"class.std::shared_ptr.14" }
%"class.std::shared_ptr.14" = type { %"class.std::__shared_ptr.15" }
%"class.std::__shared_ptr.15" = type { ptr, %"class.std::__shared_count" }
%"class.std::__shared_count" = type { ptr }
%"class.std::__cxx11::basic_string" = type { %"struct.std::__cxx11::basic_string<char>::_Alloc_hider", i64, %union.anon }
%"struct.std::__cxx11::basic_string<char>::_Alloc_hider" = type { ptr }
%union.anon = type { i64, [8 x i8] }
%"struct.cv::Animation" = type { i32, %"class.cv::Scalar_", %"class.std::vector.3", %"class.std::vector" }
%"class.cv::Scalar_" = type { %"class.cv::Vec" }
%"class.cv::Vec" = type { %"class.cv::Matx" }
%"class.cv::Matx" = type { [4 x double] }
%"class.std::vector.3" = type { %"struct.std::_Vector_base.4" }
%"struct.std::_Vector_base.4" = type { %"struct.std::_Vector_base<int, std::allocator<int>>::_Vector_impl" }
%"struct.std::_Vector_base<int, std::allocator<int>>::_Vector_impl" = type { %"struct.std::_Vector_base<int, std::allocator<int>>::_Vector_impl_data" }
%"struct.std::_Vector_base<int, std::allocator<int>>::_Vector_impl_data" = type { ptr, ptr, ptr }
%"class.std::vector" = type { %"struct.std::_Vector_base" }
%"struct.std::_Vector_base" = type { %"struct.std::_Vector_base<cv::Mat, std::allocator<cv::Mat>>::_Vector_impl" }
%"struct.std::_Vector_base<cv::Mat, std::allocator<cv::Mat>>::_Vector_impl" = type { %"struct.std::_Vector_base<cv::Mat, std::allocator<cv::Mat>>::_Vector_impl_data" }
%"struct.std::_Vector_base<cv::Mat, std::allocator<cv::Mat>>::_Vector_impl_data" = type { ptr, ptr, ptr }
%"struct.std::_Vector_base.9" = type { %"struct.std::_Vector_base<unsigned char, std::allocator<unsigned char>>::_Vector_impl" }
%"struct.std::_Vector_base<unsigned char, std::allocator<unsigned char>>::_Vector_impl" = type { %"struct.std::_Vector_base<unsigned char, std::allocator<unsigned char>>::_Vector_impl_data" }
%"struct.std::_Vector_base<unsigned char, std::allocator<unsigned char>>::_Vector_impl_data" = type { ptr, ptr, ptr }
%"class.cv::ImageCollection::Impl" = type { %"class.std::__cxx11::basic_string", i32, i64, i32, i32, i32, %"class.std::vector", %"struct.cv::Ptr.13" }
%"class.cv::BaseImageDecoder" = type { ptr, i32, i32, i32, i32, %"class.std::__cxx11::basic_string", %"class.std::__cxx11::basic_string", %"class.cv::Mat", i8, i8, [6 x i8], %"class.cv::ExifReader", i64, %"struct.cv::Animation" }
%"class.cv::ExifReader" = type <{ %"class.std::vector.8", %"class.std::map", i32, [4 x i8] }>
%"class.std::vector.8" = type { %"struct.std::_Vector_base.9" }
%"class.std::map" = type { %"class.std::_Rb_tree" }
%"class.std::_Rb_tree" = type { %"struct.std::_Rb_tree<int, std::pair<const int, cv::ExifEntry_t>, std::_Select1st<std::pair<const int, cv::ExifEntry_t>>, std::less<int>>::_Rb_tree_impl" }
%"struct.std::_Rb_tree<int, std::pair<const int, cv::ExifEntry_t>, std::_Select1st<std::pair<const int, cv::ExifEntry_t>>, std::less<int>>::_Rb_tree_impl" = type { [8 x i8], %"struct.std::_Rb_tree_header" }
%"struct.std::_Rb_tree_header" = type { %"struct.std::_Rb_tree_node_base", i64 }
%"struct.std::_Rb_tree_node_base" = type { i32, ptr, ptr, ptr }

@.str.109 = private unnamed_addr constant [74 x i8] c"vector::_M_range_check: __n (which is %zu) >= this->size() (which is %zu)\00", align 1

; Function Attrs: mustprogress nounwind uwtable
define linkonce_odr hidden noundef i32 @_ZNK2cv16BaseImageDecoder6heightEv(ptr noundef nonnull align 8 dereferenceable(368) %0) #9 comdat align 2 {
  %2 = alloca ptr, align 8
  store ptr %0, ptr %2, align 8, !tbaa !147
  %3 = load ptr, ptr %2, align 8
  %4 = getelementptr inbounds nuw %"class.cv::BaseImageDecoder", ptr %3, i32 0, i32 2
  %5 = load i32, ptr %4, align 4, !tbaa !165
  ret i32 %5
}

; Function Attrs: mustprogress nounwind uwtable
define linkonce_odr hidden noundef i32 @_ZNK2cv16BaseImageDecoder5widthEv(ptr noundef nonnull align 8 dereferenceable(368) %0) #9 comdat align 2 {
  %2 = alloca ptr, align 8
  store ptr %0, ptr %2, align 8, !tbaa !147
  %3 = load ptr, ptr %2, align 8
  %4 = getelementptr inbounds nuw %"class.cv::BaseImageDecoder", ptr %3, i32 0, i32 1
  %5 = load i32, ptr %4, align 8, !tbaa !164
  ret i32 %5
}

; Function Attrs: mustprogress nounwind uwtable
define linkonce_odr hidden noundef ptr @_ZNKSt12__shared_ptrIN2cv16BaseImageDecoderELN9__gnu_cxx12_Lock_policyE2EE3getEv(ptr noundef nonnull align 8 dereferenceable(16) %0) #9 comdat align 2 {
  %2 = alloca ptr, align 8
  store ptr %0, ptr %2, align 8, !tbaa !130
  %3 = load ptr, ptr %2, align 8
  %4 = getelementptr inbounds nuw %"class.std::__shared_ptr.15", ptr %3, i32 0, i32 0
  %5 = load ptr, ptr %4, align 8, !tbaa !146
  ret ptr %5
}

; Function Attrs: mustprogress nounwind uwtable
define linkonce_odr hidden noundef i64 @_ZNKSt6vectorIN2cv3MatESaIS1_EE4sizeEv(ptr noundef nonnull align 8 dereferenceable(24) %0) #9 comdat align 2 {
  %2 = alloca ptr, align 8
  store ptr %0, ptr %2, align 8, !tbaa !50
  %3 = load ptr, ptr %2, align 8
  %4 = getelementptr inbounds nuw %"struct.std::_Vector_base", ptr %3, i32 0, i32 0
  %5 = getelementptr inbounds nuw %"struct.std::_Vector_base<cv::Mat, std::allocator<cv::Mat>>::_Vector_impl_data", ptr %4, i32 0, i32 1
  %6 = load ptr, ptr %5, align 8, !tbaa !86
  %7 = getelementptr inbounds nuw %"struct.std::_Vector_base", ptr %3, i32 0, i32 0
  %8 = getelementptr inbounds nuw %"struct.std::_Vector_base<cv::Mat, std::allocator<cv::Mat>>::_Vector_impl_data", ptr %7, i32 0, i32 0
  %9 = load ptr, ptr %8, align 8, !tbaa !85
  %10 = ptrtoint ptr %6 to i64
  %11 = ptrtoint ptr %9 to i64
  %12 = sub i64 %10, %11
  %13 = sdiv exact i64 %12, 96
  ret i64 %13
}

; Function Attrs: mustprogress uwtable
define noundef zeroext i1 @_ZN2cv15ImageCollection4Impl10readHeaderEv(ptr noundef nonnull align 8 dereferenceable(104) %0) #5 align 2 {
  %2 = alloca ptr, align 8
  %3 = alloca i8, align 1
  store ptr %0, ptr %2, align 8, !tbaa !132
  %4 = load ptr, ptr %2, align 8
  call void @llvm.lifetime.start.p0(i64 1, ptr %3) #3
  %5 = getelementptr inbounds nuw %"class.cv::ImageCollection::Impl", ptr %4, i32 0, i32 7
  %6 = call noundef ptr @_ZNK2cv3PtrINS_16BaseImageDecoderEEptEv(ptr noundef nonnull align 8 dereferenceable(16) %5) #3
  %7 = load ptr, ptr %6, align 8, !tbaa !14
  %8 = getelementptr inbounds ptr, ptr %7, i64 6
  %9 = load ptr, ptr %8, align 8
  %10 = call noundef zeroext i1 %9(ptr noundef nonnull align 8 dereferenceable(368) %6)
  %11 = zext i1 %10 to i8
  store i8 %11, ptr %3, align 1, !tbaa !39
  %12 = getelementptr inbounds nuw %"class.cv::ImageCollection::Impl", ptr %4, i32 0, i32 7
  %13 = call noundef ptr @_ZNK2cv3PtrINS_16BaseImageDecoderEEptEv(ptr noundef nonnull align 8 dereferenceable(16) %12) #3
  %14 = call noundef i32 @_ZNK2cv16BaseImageDecoder5widthEv(ptr noundef nonnull align 8 dereferenceable(368) %13)
  %15 = getelementptr inbounds nuw %"class.cv::ImageCollection::Impl", ptr %4, i32 0, i32 3
  store i32 %14, ptr %15, align 8, !tbaa !143
  %16 = getelementptr inbounds nuw %"class.cv::ImageCollection::Impl", ptr %4, i32 0, i32 7
  %17 = call noundef ptr @_ZNK2cv3PtrINS_16BaseImageDecoderEEptEv(ptr noundef nonnull align 8 dereferenceable(16) %16) #3
  %18 = call noundef i32 @_ZNK2cv16BaseImageDecoder6heightEv(ptr noundef nonnull align 8 dereferenceable(368) %17)
  %19 = getelementptr inbounds nuw %"class.cv::ImageCollection::Impl", ptr %4, i32 0, i32 4
  store i32 %18, ptr %19, align 4, !tbaa !144
  %20 = load i8, ptr %3, align 1, !tbaa !39, !range !41, !noundef !42
  %21 = trunc i8 %20 to i1
  call void @llvm.lifetime.end.p0(i64 1, ptr %3) #3
  ret i1 %21
}

; Function Attrs: mustprogress nounwind uwtable
define linkonce_odr hidden noundef ptr @_ZNK2cv3PtrINS_16BaseImageDecoderEEptEv(ptr noundef nonnull align 8 dereferenceable(16) %0) #9 comdat align 2 {
  %2 = alloca ptr, align 8
  store ptr %0, ptr %2, align 8, !tbaa !128
  %3 = load ptr, ptr %2, align 8
  %4 = call noundef ptr @_ZNKSt12__shared_ptrIN2cv16BaseImageDecoderELN9__gnu_cxx12_Lock_policyE2EE3getEv(ptr noundef nonnull align 8 dereferenceable(16) %3) #3
  ret ptr %4
}

; Function Attrs: mustprogress uwtable
define linkonce_odr hidden void @_ZNKSt6vectorIN2cv3MatESaIS1_EE14_M_range_checkEm(ptr noundef nonnull align 8 dereferenceable(24) %0, i64 noundef %1) #5 comdat align 2 {
  %3 = alloca ptr, align 8
  %4 = alloca i64, align 8
  store ptr %0, ptr %3, align 8, !tbaa !50
  store i64 %1, ptr %4, align 8, !tbaa !3
  %5 = load ptr, ptr %3, align 8
  %6 = load i64, ptr %4, align 8, !tbaa !3
  %7 = call noundef i64 @_ZNKSt6vectorIN2cv3MatESaIS1_EE4sizeEv(ptr noundef nonnull align 8 dereferenceable(24) %5) #3
  %8 = icmp uge i64 %6, %7
  br i1 %8, label %9, label %12

9:                                                ; preds = %2
  %10 = load i64, ptr %4, align 8, !tbaa !3
  %11 = call noundef i64 @_ZNKSt6vectorIN2cv3MatESaIS1_EE4sizeEv(ptr noundef nonnull align 8 dereferenceable(24) %5) #3
  call void (ptr, ...) @_ZSt24__throw_out_of_range_fmtPKcz(ptr noundef @.str.109, i64 noundef %10, i64 noundef %11) #23
  unreachable

12:                                               ; preds = %2
  ret void
}

; Function Attrs: mustprogress nounwind uwtable
define linkonce_odr hidden noundef nonnull align 8 dereferenceable(96) ptr @_ZNSt6vectorIN2cv3MatESaIS1_EEixEm(ptr noundef nonnull align 8 dereferenceable(24) %0, i64 noundef %1) #9 comdat align 2 {
  %3 = alloca ptr, align 8
  %4 = alloca i64, align 8
  store ptr %0, ptr %3, align 8, !tbaa !50
  store i64 %1, ptr %4, align 8, !tbaa !3
  %5 = load ptr, ptr %3, align 8
  %6 = getelementptr inbounds nuw %"struct.std::_Vector_base", ptr %5, i32 0, i32 0
  %7 = getelementptr inbounds nuw %"struct.std::_Vector_base<cv::Mat, std::allocator<cv::Mat>>::_Vector_impl_data", ptr %6, i32 0, i32 0
  %8 = load ptr, ptr %7, align 8, !tbaa !85
  %9 = load i64, ptr %4, align 8, !tbaa !3
  %10 = getelementptr inbounds nuw %"class.cv::Mat", ptr %8, i64 %9
  ret ptr %10
}

; Function Attrs: mustprogress uwtable
define void @_ZN2cv15ImageCollection4Impl4readEv(ptr dead_on_unwind noalias writable sret(%"class.cv::Mat") align 8 %0, ptr noundef nonnull align 8 dereferenceable(104) %1) #5 align 2 {
  %3 = alloca ptr, align 8
  %4 = alloca ptr, align 8
  %5 = alloca i8, align 1
  %6 = alloca i32, align 4
  store ptr %0, ptr %3, align 8
  store ptr %1, ptr %4, align 8, !tbaa !132
  %7 = load ptr, ptr %4, align 8
  call void @llvm.lifetime.start.p0(i64 1, ptr %5) #3
  %8 = call noundef zeroext i1 @_ZN2cv15ImageCollection4Impl10readHeaderEv(ptr noundef nonnull align 8 dereferenceable(104) %7)
  %9 = zext i1 %8 to i8
  store i8 %9, ptr %5, align 1, !tbaa !39
  %10 = load i8, ptr %5, align 1, !tbaa !39, !range !41, !noundef !42
  %11 = trunc i8 %10 to i1
  br i1 %11, label %13, label %12

12:                                               ; preds = %2
  call void @_ZN2cv3MatC1Ev(ptr noundef nonnull align 8 dereferenceable(96) %0) #3
  store i32 1, ptr %6, align 4
  br label %14

13:                                               ; preds = %2
  call void @_ZN2cv15ImageCollection4Impl8readDataEv(ptr dead_on_unwind writable sret(%"class.cv::Mat") align 8 %0, ptr noundef nonnull align 8 dereferenceable(104) %7)
  store i32 1, ptr %6, align 4
  br label %14

14:                                               ; preds = %13, %12
  call void @llvm.lifetime.end.p0(i64 1, ptr %5) #3
  ret void
}

; Function Attrs: mustprogress uwtable
define noundef zeroext i1 @_ZN2cv15ImageCollection4Impl7advanceEv(ptr noundef nonnull align 8 dereferenceable(104) %0) #5 align 2 {
  %2 = alloca ptr, align 8
  store ptr %0, ptr %2, align 8, !tbaa !132
  %3 = load ptr, ptr %2, align 8
  %4 = getelementptr inbounds nuw %"class.cv::ImageCollection::Impl", ptr %3, i32 0, i32 5
  %5 = load i32, ptr %4, align 8, !tbaa !145
  %6 = add nsw i32 %5, 1
  store i32 %6, ptr %4, align 8, !tbaa !145
  %7 = getelementptr inbounds nuw %"class.cv::ImageCollection::Impl", ptr %3, i32 0, i32 7
  %8 = call noundef ptr @_ZNK2cv3PtrINS_16BaseImageDecoderEEptEv(ptr noundef nonnull align 8 dereferenceable(16) %7) #3
  %9 = load ptr, ptr %8, align 8, !tbaa !14
  %10 = getelementptr inbounds ptr, ptr %9, i64 9
  %11 = load ptr, ptr %10, align 8
  %12 = call noundef zeroext i1 %11(ptr noundef nonnull align 8 dereferenceable(368) %8)
  ret i1 %12
}

; Function Attrs: mustprogress uwtable
define linkonce_odr hidden noundef nonnull align 8 dereferenceable(96) ptr @_ZNSt6vectorIN2cv3MatESaIS1_EE2atEm(ptr noundef nonnull align 8 dereferenceable(24) %0, i64 noundef %1) #5 comdat align 2 {
  %3 = alloca ptr, align 8
  %4 = alloca i64, align 8
  store ptr %0, ptr %3, align 8, !tbaa !50
  store i64 %1, ptr %4, align 8, !tbaa !3
  %5 = load ptr, ptr %3, align 8
  %6 = load i64, ptr %4, align 8, !tbaa !3
  call void @_ZNKSt6vectorIN2cv3MatESaIS1_EE14_M_range_checkEm(ptr noundef nonnull align 8 dereferenceable(24) %5, i64 noundef %6)
  %7 = load i64, ptr %4, align 8, !tbaa !3
  %8 = call noundef nonnull align 8 dereferenceable(96) ptr @_ZNSt6vectorIN2cv3MatESaIS1_EEixEm(ptr noundef nonnull align 8 dereferenceable(24) %5, i64 noundef %7) #3
  ret ptr %8
}

; Function Attrs: mustprogress uwtable
define noundef nonnull align 8 dereferenceable(96) ptr @_ZN2cv15ImageCollection4ImplixEi(ptr noundef nonnull align 8 dereferenceable(104) %0, i32 noundef %1) #5 align 2 personality ptr @__gxx_personality_v0 {
  %3 = alloca ptr, align 8
  %4 = alloca i32, align 4
  %5 = alloca i32, align 4
  %6 = alloca %"class.cv::Mat", align 8
  %7 = alloca ptr, align 8
  %8 = alloca i32, align 4
  store ptr %0, ptr %3, align 8, !tbaa !132
  store i32 %1, ptr %4, align 4, !tbaa !10
  %9 = load ptr, ptr %3, align 8
  %10 = getelementptr inbounds nuw %"class.cv::ImageCollection::Impl", ptr %9, i32 0, i32 6
  %11 = load i32, ptr %4, align 4, !tbaa !10
  %12 = sext i32 %11 to i64
  %13 = call noundef nonnull align 8 dereferenceable(96) ptr @_ZNSt6vectorIN2cv3MatESaIS1_EE2atEm(ptr noundef nonnull align 8 dereferenceable(24) %10, i64 noundef %12)
  %14 = call noundef zeroext i1 @_ZNK2cv3Mat5emptyEv(ptr noundef nonnull align 8 dereferenceable(96) %13)
  br i1 %14, label %15, label %46

15:                                               ; preds = %2
  %16 = getelementptr inbounds nuw %"class.cv::ImageCollection::Impl", ptr %9, i32 0, i32 5
  %17 = load i32, ptr %16, align 8, !tbaa !145
  %18 = load i32, ptr %4, align 4, !tbaa !10
  %19 = icmp ne i32 %17, %18
  br i1 %19, label %20, label %35

20:                                               ; preds = %15
  call void @_ZN2cv15ImageCollection4Impl5resetEv(ptr noundef nonnull align 8 dereferenceable(104) %9)
  call void @llvm.lifetime.start.p0(i64 4, ptr %5) #3
  store i32 0, ptr %5, align 4, !tbaa !10
  br label %21

21:                                               ; preds = %31, %20
  %22 = load i32, ptr %5, align 4, !tbaa !10
  %23 = load i32, ptr %4, align 4, !tbaa !10
  %24 = icmp ne i32 %22, %23
  br i1 %24, label %25, label %27

25:                                               ; preds = %21
  %26 = call noundef zeroext i1 @_ZN2cv15ImageCollection4Impl7advanceEv(ptr noundef nonnull align 8 dereferenceable(104) %9)
  br label %27

27:                                               ; preds = %25, %21
  %28 = phi i1 [ false, %21 ], [ %26, %25 ]
  br i1 %28, label %30, label %29

29:                                               ; preds = %27
  call void @llvm.lifetime.end.p0(i64 4, ptr %5) #3
  br label %34

30:                                               ; preds = %27
  br label %31

31:                                               ; preds = %30
  %32 = load i32, ptr %5, align 4, !tbaa !10
  %33 = add nsw i32 %32, 1
  store i32 %33, ptr %5, align 4, !tbaa !10
  br label %21, !llvm.loop !183

34:                                               ; preds = %29
  br label %35

35:                                               ; preds = %34, %15
  call void @llvm.lifetime.start.p0(i64 96, ptr %6) #3
  call void @_ZN2cv15ImageCollection4Impl4readEv(ptr dead_on_unwind writable sret(%"class.cv::Mat") align 8 %6, ptr noundef nonnull align 8 dereferenceable(104) %9)
  %36 = getelementptr inbounds nuw %"class.cv::ImageCollection::Impl", ptr %9, i32 0, i32 6
  %37 = load i32, ptr %4, align 4, !tbaa !10
  %38 = sext i32 %37 to i64
  %39 = call noundef nonnull align 8 dereferenceable(96) ptr @_ZNSt6vectorIN2cv3MatESaIS1_EEixEm(ptr noundef nonnull align 8 dereferenceable(24) %36, i64 noundef %38) #3
  %40 = invoke noundef nonnull align 8 dereferenceable(96) ptr @_ZN2cv3MataSEOS0_(ptr noundef nonnull align 8 dereferenceable(96) %39, ptr noundef nonnull align 8 dereferenceable(96) %6)
          to label %41 unwind label %42

41:                                               ; preds = %35
  call void @_ZN2cv3MatD1Ev(ptr noundef nonnull align 8 dereferenceable(96) %6) #3
  call void @llvm.lifetime.end.p0(i64 96, ptr %6) #3
  br label %46

42:                                               ; preds = %35
  %43 = landingpad { ptr, i32 }
          cleanup
  %44 = extractvalue { ptr, i32 } %43, 0
  store ptr %44, ptr %7, align 8
  %45 = extractvalue { ptr, i32 } %43, 1
  store i32 %45, ptr %8, align 4
  call void @_ZN2cv3MatD1Ev(ptr noundef nonnull align 8 dereferenceable(96) %6) #3
  call void @llvm.lifetime.end.p0(i64 96, ptr %6) #3
  br label %51

46:                                               ; preds = %41, %2
  %47 = getelementptr inbounds nuw %"class.cv::ImageCollection::Impl", ptr %9, i32 0, i32 6
  %48 = load i32, ptr %4, align 4, !tbaa !10
  %49 = sext i32 %48 to i64
  %50 = call noundef nonnull align 8 dereferenceable(96) ptr @_ZNSt6vectorIN2cv3MatESaIS1_EEixEm(ptr noundef nonnull align 8 dereferenceable(24) %47, i64 noundef %49) #3
  ret ptr %50

51:                                               ; preds = %42
  %52 = load ptr, ptr %7, align 8
  %53 = load i32, ptr %8, align 4
  %54 = insertvalue { ptr, i32 } poison, ptr %52, 0
  %55 = insertvalue { ptr, i32 } %54, i32 %53, 1
  resume { ptr, i32 } %55
}