; Function Attrs: mustprogress uwtable
define noundef nonnull align 8 dereferenceable(96) ptr @_ZN2cv15ImageCollection4ImplixEi(ptr noundef nonnull align 8 dereferenceable(104) %0, i32 noundef %1) local_unnamed_addr #4 align 2 personality ptr @__gxx_personality_v0 {
  %3 = alloca %"class.cv::Mat", align 8
  %4 = getelementptr inbounds nuw i8, ptr %0, i64 64
  %5 = sext i32 %1 to i64
  %6 = getelementptr inbounds nuw i8, ptr %0, i64 72
  %7 = load ptr, ptr %6, align 8, !tbaa !96
  %8 = load ptr, ptr %4, align 8, !tbaa !141
  %9 = ptrtoint ptr %7 to i64
  %10 = ptrtoint ptr %8 to i64
  %11 = sub i64 %9, %10
  %12 = sdiv exact i64 %11, 96
  %.not.i.i = icmp ugt i64 %12, %5
  br i1 %.not.i.i, label %_ZNSt6vectorIN2cv3MatESaIS1_EE2atEm.exit, label %13

13:                                               ; preds = %2
  tail call void (ptr, ...) @_ZSt24__throw_out_of_range_fmtPKcz(ptr noundef nonnull @.str.109, i64 noundef %5, i64 noundef %12) #33
  unreachable

_ZNSt6vectorIN2cv3MatESaIS1_EE2atEm.exit:         ; preds = %2
  %14 = getelementptr inbounds nuw %"class.cv::Mat", ptr %8, i64 %5
  %15 = tail call noundef zeroext i1 @_ZNK2cv3Mat5emptyEv(ptr noundef nonnull align 8 dereferenceable(96) %14)
  br i1 %15, label %16, label %51

16:                                               ; preds = %_ZNSt6vectorIN2cv3MatESaIS1_EE2atEm.exit
  %17 = getelementptr inbounds nuw i8, ptr %0, i64 56
  %18 = load i32, ptr %17, align 8, !tbaa !264
  %.not = icmp eq i32 %18, %1
  br i1 %.not, label %.critedge, label %19

19:                                               ; preds = %16
  tail call void @_ZN2cv15ImageCollection4Impl5resetEv(ptr noundef nonnull align 8 dereferenceable(104) %0)
  %.not1011 = icmp eq i32 %1, 0
  br i1 %.not1011, label %.critedge, label %.lr.ph

.lr.ph:                                           ; preds = %19
  %20 = getelementptr inbounds nuw i8, ptr %0, i64 88
  br label %21

21:                                               ; preds = %21, %.lr.ph
  %.012 = phi i32 [ 0, %.lr.ph ], [ %29, %21 ]
  %22 = load i32, ptr %17, align 8, !tbaa !264
  %23 = add nsw i32 %22, 1
  store i32 %23, ptr %17, align 8, !tbaa !264
  %24 = load ptr, ptr %20, align 8, !tbaa !14
  %25 = load ptr, ptr %24, align 8, !tbaa !25
  %26 = getelementptr inbounds nuw i8, ptr %25, i64 72
  %27 = load ptr, ptr %26, align 8
  %28 = tail call noundef zeroext i1 %27(ptr noundef nonnull align 8 dereferenceable(368) %24)
  %29 = add nuw nsw i32 %.012, 1
  %.not10 = icmp ne i32 %29, %1
  %or.cond.not = select i1 %28, i1 %.not10, i1 false
  br i1 %or.cond.not, label %21, label %.critedge, !llvm.loop !265

.critedge:                                        ; preds = %21, %19, %16
  call void @llvm.lifetime.start.p0(i64 96, ptr nonnull %3) #30
  %30 = getelementptr inbounds nuw i8, ptr %0, i64 88
  %31 = load ptr, ptr %30, align 8, !tbaa !14, !noalias !266
  %32 = load ptr, ptr %31, align 8, !tbaa !25, !noalias !266
  %33 = getelementptr inbounds nuw i8, ptr %32, i64 48
  %34 = load ptr, ptr %33, align 8, !noalias !266
  %35 = tail call noundef zeroext i1 %34(ptr noundef nonnull align 8 dereferenceable(368) %31), !noalias !266
  %36 = load ptr, ptr %30, align 8, !tbaa !14, !noalias !266
  %37 = getelementptr inbounds nuw i8, ptr %36, i64 8
  %38 = load i32, ptr %37, align 8, !tbaa !38, !noalias !266
  %39 = getelementptr inbounds nuw i8, ptr %0, i64 48
  store i32 %38, ptr %39, align 8, !tbaa !262, !noalias !266
  %40 = getelementptr inbounds nuw i8, ptr %36, i64 12
  %41 = load i32, ptr %40, align 4, !tbaa !76, !noalias !266
  %42 = getelementptr inbounds nuw i8, ptr %0, i64 52
  store i32 %41, ptr %42, align 4, !tbaa !263, !noalias !266
  br i1 %35, label %44, label %43

43:                                               ; preds = %.critedge
  call void @_ZN2cv3MatC1Ev(ptr noundef nonnull align 8 dereferenceable(96) %3) #30
  br label %_ZN2cv15ImageCollection4Impl4readEv.exit

44:                                               ; preds = %.critedge
  call void @_ZN2cv15ImageCollection4Impl8readDataEv(ptr dead_on_unwind nonnull writable sret(%"class.cv::Mat") align 8 %3, ptr noundef nonnull align 8 dereferenceable(104) %0)
  br label %_ZN2cv15ImageCollection4Impl4readEv.exit

_ZN2cv15ImageCollection4Impl4readEv.exit:         ; preds = %43, %44
  %45 = load ptr, ptr %4, align 8, !tbaa !141
  %46 = getelementptr inbounds nuw %"class.cv::Mat", ptr %45, i64 %5
  %47 = invoke noundef nonnull align 8 dereferenceable(96) ptr @_ZN2cv3MataSEOS0_(ptr noundef nonnull align 8 dereferenceable(96) %46, ptr noundef nonnull align 8 dereferenceable(96) %3)
          to label %48 unwind label %49

48:                                               ; preds = %_ZN2cv15ImageCollection4Impl4readEv.exit
  call void @_ZN2cv3MatD1Ev(ptr noundef nonnull align 8 dereferenceable(96) %3) #30
  call void @llvm.lifetime.end.p0(i64 96, ptr nonnull %3) #30
  br label %51

49:                                               ; preds = %_ZN2cv15ImageCollection4Impl4readEv.exit
  %50 = landingpad { ptr, i32 }
          cleanup
  call void @_ZN2cv3MatD1Ev(ptr noundef nonnull align 8 dereferenceable(96) %3) #30
  call void @llvm.lifetime.end.p0(i64 96, ptr nonnull %3) #30
  resume { ptr, i32 } %50

51:                                               ; preds = %48, %_ZNSt6vectorIN2cv3MatESaIS1_EE2atEm.exit
  %52 = load ptr, ptr %4, align 8, !tbaa !141
  %53 = getelementptr inbounds nuw %"class.cv::Mat", ptr %52, i64 %5
  ret ptr %53
}